; Function Attrs: nounwind uwtable
define internal range(i32 -2147483648, 1) i32 @send_media_file_request(ptr noundef initializes((24, 80)) %0) #0 {
  %2 = alloca %struct.FFIOContext, align 8
  %3 = getelementptr inbounds nuw i8, ptr %0, i64 24
  %4 = getelementptr inbounds nuw i8, ptr %0, i64 16
  store i32 1, ptr %3, align 1, !tbaa !36
  %5 = getelementptr inbounds nuw i8, ptr %0, i64 28
  store i32 -1341392178, ptr %5, align 1, !tbaa !36
  %6 = getelementptr inbounds nuw i8, ptr %0, i64 32
  store i32 0, ptr %6, align 1, !tbaa !36
  %7 = getelementptr inbounds nuw i8, ptr %0, i64 36
  store i32 542330189, ptr %7, align 1, !tbaa !36
  %8 = getelementptr inbounds nuw i8, ptr %0, i64 40
  store i32 0, ptr %8, align 1, !tbaa !36
  %9 = getelementptr inbounds nuw i8, ptr %0, i64 44
  %10 = getelementptr inbounds nuw i8, ptr %0, i64 66120
  %11 = load i32, ptr %10, align 8, !tbaa !37
  %12 = add nsw i32 %11, 1
  store i32 %12, ptr %10, align 8, !tbaa !37
  store i32 %11, ptr %9, align 1, !tbaa !36
  %13 = getelementptr inbounds nuw i8, ptr %0, i64 48
  store i64 0, ptr %13, align 1, !tbaa !36
  %14 = getelementptr inbounds nuw i8, ptr %0, i64 56
  store i32 0, ptr %14, align 1, !tbaa !36
  %15 = getelementptr inbounds nuw i8, ptr %0, i64 60
  store i16 5, ptr %15, align 1, !tbaa !36
  %16 = getelementptr inbounds nuw i8, ptr %0, i64 62
  store i16 3, ptr %16, align 1, !tbaa !36
  %17 = getelementptr inbounds nuw i8, ptr %0, i64 64
  store i32 1, ptr %17, align 1, !tbaa !36
  %18 = getelementptr inbounds nuw i8, ptr %0, i64 68
  store i32 -1, ptr %18, align 1, !tbaa !36
  %19 = getelementptr inbounds nuw i8, ptr %0, i64 72
  store i32 0, ptr %19, align 1, !tbaa !36
  %20 = getelementptr inbounds nuw i8, ptr %0, i64 76
  store i32 0, ptr %20, align 1, !tbaa !36
  %21 = getelementptr inbounds nuw i8, ptr %0, i64 80
  store ptr %21, ptr %4, align 8, !tbaa !38
  %22 = getelementptr inbounds nuw i8, ptr %0, i64 66125
  call void @llvm.lifetime.start.p0(i64 280, ptr nonnull %2) #7
  call void @ffio_init_write_context(ptr noundef nonnull %2, ptr noundef nonnull %21, i32 noundef 456) #7
  %23 = call i32 @avio_put_str16le(ptr noundef nonnull %2, ptr noundef nonnull %22) #7
  %24 = icmp slt i32 %23, 0
  br i1 %24, label %mms_put_utf16.exit.thread, label %25

mms_put_utf16.exit.thread:                        ; preds = %1
  call void @llvm.lifetime.end.p0(i64 280, ptr nonnull %2) #7
  br label %send_command_packet.exit

25:                                               ; preds = %1
  %26 = ptrtoint ptr %3 to i64
  %27 = load ptr, ptr %4, align 8, !tbaa !41
  %28 = zext nneg i32 %23 to i64
  %29 = getelementptr inbounds nuw i8, ptr %27, i64 %28
  store ptr %29, ptr %4, align 8, !tbaa !41
  call void @llvm.lifetime.end.p0(i64 280, ptr nonnull %2) #7
  %30 = ptrtoint ptr %29 to i64
  %31 = sub i64 %30, %26
  %32 = trunc i64 %31 to i32
  %33 = add nsw i32 %32, 7
  %34 = and i32 %33, -8
  %35 = add nsw i32 %34, -16
  %36 = ashr exact i32 %35, 3
  store i32 %35, ptr %6, align 1, !tbaa !36
  store i32 %36, ptr %8, align 1, !tbaa !36
  %37 = add nsw i32 %36, -2
  store i32 %37, ptr %14, align 1, !tbaa !36
  %38 = sub nsw i32 %34, %32
  %39 = sext i32 %38 to i64
  call void @llvm.memset.p0.i64(ptr align 1 %29, i8 0, i64 %39, i1 false)
  %40 = load ptr, ptr %0, align 8, !tbaa !31
  %41 = call i32 @ffurl_write2(ptr noundef %40, ptr noundef nonnull %3, i32 noundef range(i32 0, -7) %34) #7
  %.not.i = icmp eq i32 %41, %34
  br i1 %.not.i, label %send_command_packet.exit, label %42

42:                                               ; preds = %25
  %43 = load ptr, ptr %0, align 8, !tbaa !31
  %44 = icmp slt i32 %41, 0
  br i1 %44, label %45, label %48

45:                                               ; preds = %42
  %46 = sub nsw i32 0, %41
  %47 = call ptr @strerror(i32 noundef %46) #7
  br label %48

48:                                               ; preds = %45, %42
  %49 = phi ptr [ %47, %45 ], [ @.str.11, %42 ]
  call void (ptr, i32, ptr, ...) @av_log(ptr noundef %43, i32 noundef 16, ptr noundef nonnull @.str.19, i32 noundef %34, i32 noundef %41, ptr noundef %49) #7
  br label %send_command_packet.exit

send_command_packet.exit:                         ; preds = %48, %25, %mms_put_utf16.exit.thread
  %.0 = phi i32 [ %23, %mms_put_utf16.exit.thread ], [ -5, %48 ], [ 0, %25 ]
  ret i32 %.0
}